target datalayout = "e-m:e-p270:32:32-p271:32:32-p272:64:64-i64:64-i128:128-f80:128-n8:16:32:64-S128"
target triple = "x86_64-unknown-linux-gnu"

@.str.212 = private unnamed_addr constant [48 x i8] c"memory backend %s can't be used multiple times.\00", align 1

; Function Attrs: nounwind sspstrong uwtable
define dso_local ptr @machine_consume_memdev(ptr noundef %machine, ptr noundef %backend) #0 {
entry:
  %machine.addr = alloca ptr, align 8
  %backend.addr = alloca ptr, align 8
  %ret = alloca ptr, align 8
  store ptr %machine, ptr %machine.addr, align 8
  store ptr %backend, ptr %backend.addr, align 8
  %0 = load ptr, ptr %backend.addr, align 8
  %call = call ptr @host_memory_backend_get_memory(ptr noundef %0)
  store ptr %call, ptr %ret, align 8
  %1 = load ptr, ptr %backend.addr, align 8
  %call1 = call zeroext i1 @host_memory_backend_is_mapped(ptr noundef %1)
  br i1 %call1, label %if.then, label %if.end

if.then:                                          ; preds = %entry
  %2 = load ptr, ptr %backend.addr, align 8
  %call2 = call ptr @object_get_canonical_path_component(ptr noundef %2)
  call void (ptr, ...) @error_report(ptr noundef @.str.212, ptr noundef %call2)
  call void @exit(i32 noundef 1) #13
  unreachable

if.end:                                           ; preds = %entry
  %3 = load ptr, ptr %backend.addr, align 8
  call void @host_memory_backend_set_mapped(ptr noundef %3, i1 noundef zeroext true)
  %4 = load ptr, ptr %ret, align 8
  call void @vmstate_register_ram_global(ptr noundef %4)
  %5 = load ptr, ptr %ret, align 8
  ret ptr %5
}