; Function Attrs: nounwind sspstrong uwtable
define dso_local ptr @machine_consume_memdev(ptr noundef readnone captures(none) %machine, ptr noundef %backend) local_unnamed_addr #0 {
entry:
  %call = tail call ptr @host_memory_backend_get_memory(ptr noundef %backend) #16
  %call1 = tail call zeroext i1 @host_memory_backend_is_mapped(ptr noundef %backend) #16
  br i1 %call1, label %if.then, label %if.end

if.then:                                          ; preds = %entry
  %call2 = tail call ptr @object_get_canonical_path_component(ptr noundef %backend) #16
  tail call void (ptr, ...) @error_report(ptr noundef nonnull @.str.212, ptr noundef %call2) #16
  tail call void @exit(i32 noundef 1) #20
  unreachable

if.end:                                           ; preds = %entry
  tail call void @host_memory_backend_set_mapped(ptr noundef %backend, i1 noundef zeroext true) #16
  tail call void @vmstate_register_ram_global(ptr noundef %call) #16
  ret ptr %call
}